target datalayout = "e-m:e-p270:32:32-p271:32:32-p272:64:64-i64:64-i128:128-f80:128-n8:16:32:64-S128"
target triple = "x86_64-pc-linux-gnu"

%struct.ForEachState = type { ptr, i32 }
%struct.PlannerInfo = type { i32, ptr, ptr, i32, ptr, ptr, ptr, ptr, i32, ptr, ptr, ptr, ptr, ptr, ptr, ptr, ptr, i32, ptr, ptr, ptr, ptr, ptr, i8, ptr, ptr, ptr, ptr, ptr, i32, ptr, ptr, ptr, ptr, ptr, ptr, ptr, i32, ptr, ptr, ptr, i32, ptr, ptr, ptr, ptr, ptr, ptr, [8 x ptr], [8 x ptr], ptr, ptr, ptr, ptr, ptr, ptr, ptr, double, double, double, i32, i8, i8, i8, i8, i8, i8, i8, i32, ptr, ptr, i32, i8, i8, i32, ptr, ptr, ptr, ptr, ptr, ptr, i8, ptr }
%struct.List = type { i32, i32, i32, ptr, [0 x %union.ListCell] }
%union.ListCell = type { ptr }
%struct.SpecialJoinInfo = type { i32, ptr, ptr, ptr, ptr, i32, i32, ptr, ptr, ptr, ptr, i8, i8, i8, ptr, ptr }

; Function Attrs: nounwind uwtable
define dso_local ptr @add_outer_joins_to_relids(ptr noundef %0, ptr noundef %1, ptr noundef %2, ptr noundef %3) #0 {
  %5 = alloca ptr, align 8
  %6 = alloca ptr, align 8
  %7 = alloca ptr, align 8
  %8 = alloca ptr, align 8
  %9 = alloca ptr, align 8
  %10 = alloca ptr, align 8
  %11 = alloca ptr, align 8
  %12 = alloca %struct.ForEachState, align 8
  %13 = alloca i32, align 4
  %14 = alloca ptr, align 8
  store ptr %0, ptr %6, align 8
  store ptr %1, ptr %7, align 8
  store ptr %2, ptr %8, align 8
  store ptr %3, ptr %9, align 8
  %15 = load ptr, ptr %8, align 8
  %16 = icmp eq ptr %15, null
  br i1 %16, label %22, label %17

17:                                               ; preds = %4
  %18 = load ptr, ptr %8, align 8
  %19 = getelementptr inbounds nuw %struct.SpecialJoinInfo, ptr %18, i32 0, i32 6
  %20 = load i32, ptr %19, align 4
  %21 = icmp eq i32 %20, 0
  br i1 %21, label %22, label %24

22:                                               ; preds = %17, %4
  %23 = load ptr, ptr %7, align 8
  store ptr %23, ptr %5, align 8
  br label %169

24:                                               ; preds = %17
  %25 = load ptr, ptr %8, align 8
  %26 = getelementptr inbounds nuw %struct.SpecialJoinInfo, ptr %25, i32 0, i32 5
  %27 = load i32, ptr %26, align 8
  %28 = icmp ne i32 %27, 1
  br i1 %28, label %29, label %35

29:                                               ; preds = %24
  %30 = load ptr, ptr %7, align 8
  %31 = load ptr, ptr %8, align 8
  %32 = getelementptr inbounds nuw %struct.SpecialJoinInfo, ptr %31, i32 0, i32 6
  %33 = load i32, ptr %32, align 4
  %34 = call ptr @bms_add_member(ptr noundef %30, i32 noundef %33)
  store ptr %34, ptr %5, align 8
  br label %169

35:                                               ; preds = %24
  %36 = load ptr, ptr %8, align 8
  %37 = getelementptr inbounds nuw %struct.SpecialJoinInfo, ptr %36, i32 0, i32 9
  %38 = load ptr, ptr %37, align 8
  %39 = load ptr, ptr %7, align 8
  %40 = call zeroext i1 @bms_is_subset(ptr noundef %38, ptr noundef %39)
  br i1 %40, label %43, label %41

41:                                               ; preds = %35
  %42 = load ptr, ptr %7, align 8
  store ptr %42, ptr %5, align 8
  br label %169

43:                                               ; preds = %35
  %44 = load ptr, ptr %7, align 8
  %45 = load ptr, ptr %8, align 8
  %46 = getelementptr inbounds nuw %struct.SpecialJoinInfo, ptr %45, i32 0, i32 6
  %47 = load i32, ptr %46, align 4
  %48 = call ptr @bms_add_member(ptr noundef %44, i32 noundef %47)
  store ptr %48, ptr %7, align 8
  %49 = load ptr, ptr %8, align 8
  %50 = getelementptr inbounds nuw %struct.SpecialJoinInfo, ptr %49, i32 0, i32 7
  %51 = load ptr, ptr %50, align 8
  %52 = icmp ne ptr %51, null
  br i1 %52, label %53, label %167

53:                                               ; preds = %43
  call void @llvm.lifetime.start.p0(i64 8, ptr %10) #7
  %54 = load ptr, ptr %8, align 8
  %55 = getelementptr inbounds nuw %struct.SpecialJoinInfo, ptr %54, i32 0, i32 7
  %56 = load ptr, ptr %55, align 8
  %57 = call ptr @bms_copy(ptr noundef %56)
  store ptr %57, ptr %10, align 8
  call void @llvm.lifetime.start.p0(i64 8, ptr %11) #7
  call void @llvm.lifetime.start.p0(i64 16, ptr %12) #7
  %58 = getelementptr inbounds nuw %struct.ForEachState, ptr %12, i32 0, i32 0
  %59 = load ptr, ptr %6, align 8
  %60 = getelementptr inbounds nuw %struct.PlannerInfo, ptr %59, i32 0, i32 28
  %61 = load ptr, ptr %60, align 8
  store ptr %61, ptr %58, align 8
  %62 = getelementptr inbounds nuw %struct.ForEachState, ptr %12, i32 0, i32 1
  store i32 0, ptr %62, align 8
  %63 = getelementptr i8, ptr %12, i64 12
  call void @llvm.memset.p0.i64(ptr align 4 %63, i8 0, i64 4, i1 false)
  br label %64

64:                                               ; preds = %162, %53
  %65 = getelementptr inbounds nuw %struct.ForEachState, ptr %12, i32 0, i32 0
  %66 = load ptr, ptr %65, align 8
  %67 = icmp ne ptr %66, null
  br i1 %67, label %68, label %85

68:                                               ; preds = %64
  %69 = getelementptr inbounds nuw %struct.ForEachState, ptr %12, i32 0, i32 1
  %70 = load i32, ptr %69, align 8
  %71 = getelementptr inbounds nuw %struct.ForEachState, ptr %12, i32 0, i32 0
  %72 = load ptr, ptr %71, align 8
  %73 = getelementptr inbounds nuw %struct.List, ptr %72, i32 0, i32 1
  %74 = load i32, ptr %73, align 4
  %75 = icmp slt i32 %70, %74
  br i1 %75, label %76, label %85

76:                                               ; preds = %68
  %77 = getelementptr inbounds nuw %struct.ForEachState, ptr %12, i32 0, i32 0
  %78 = load ptr, ptr %77, align 8
  %79 = getelementptr inbounds nuw %struct.List, ptr %78, i32 0, i32 3
  %80 = load ptr, ptr %79, align 8
  %81 = getelementptr inbounds nuw %struct.ForEachState, ptr %12, i32 0, i32 1
  %82 = load i32, ptr %81, align 8
  %83 = sext i32 %82 to i64
  %84 = getelementptr inbounds %union.ListCell, ptr %80, i64 %83
  store ptr %84, ptr %11, align 8
  br label %86

85:                                               ; preds = %68, %64
  store ptr null, ptr %11, align 8
  br label %86

86:                                               ; preds = %85, %76
  %87 = phi i32 [ 1, %76 ], [ 0, %85 ]
  %88 = icmp ne i32 %87, 0
  br i1 %88, label %90, label %89

89:                                               ; preds = %86
  store i32 2, ptr %13, align 4
  call void @llvm.lifetime.end.p0(i64 16, ptr %12) #7
  br label %166

90:                                               ; preds = %86
  call void @llvm.lifetime.start.p0(i64 8, ptr %14) #7
  %91 = load ptr, ptr %11, align 8
  %92 = load ptr, ptr %91, align 8
  store ptr %92, ptr %14, align 8
  %93 = load ptr, ptr %14, align 8
  %94 = load ptr, ptr %8, align 8
  %95 = icmp eq ptr %93, %94
  br i1 %95, label %106, label %96

96:                                               ; preds = %90
  %97 = load ptr, ptr %14, align 8
  %98 = getelementptr inbounds nuw %struct.SpecialJoinInfo, ptr %97, i32 0, i32 6
  %99 = load i32, ptr %98, align 4
  %100 = icmp eq i32 %99, 0
  br i1 %100, label %106, label %101

101:                                              ; preds = %96
  %102 = load ptr, ptr %14, align 8
  %103 = getelementptr inbounds nuw %struct.SpecialJoinInfo, ptr %102, i32 0, i32 5
  %104 = load i32, ptr %103, align 8
  %105 = icmp ne i32 %104, 1
  br i1 %105, label %106, label %107

106:                                              ; preds = %101, %96, %90
  store i32 4, ptr %13, align 4
  br label %159

107:                                              ; preds = %101
  %108 = load ptr, ptr %14, align 8
  %109 = getelementptr inbounds nuw %struct.SpecialJoinInfo, ptr %108, i32 0, i32 6
  %110 = load i32, ptr %109, align 4
  %111 = load ptr, ptr %10, align 8
  %112 = call zeroext i1 @bms_is_member(i32 noundef %110, ptr noundef %111)
  br i1 %112, label %114, label %113

113:                                              ; preds = %107
  store i32 4, ptr %13, align 4
  br label %159

114:                                              ; preds = %107
  %115 = load ptr, ptr %14, align 8
  %116 = getelementptr inbounds nuw %struct.SpecialJoinInfo, ptr %115, i32 0, i32 6
  %117 = load i32, ptr %116, align 4
  %118 = load ptr, ptr %7, align 8
  %119 = call zeroext i1 @bms_is_member(i32 noundef %117, ptr noundef %118)
  br i1 %119, label %158, label %120

120:                                              ; preds = %114
  %121 = load ptr, ptr %14, align 8
  %122 = getelementptr inbounds nuw %struct.SpecialJoinInfo, ptr %121, i32 0, i32 1
  %123 = load ptr, ptr %122, align 8
  %124 = load ptr, ptr %7, align 8
  %125 = call zeroext i1 @bms_is_subset(ptr noundef %123, ptr noundef %124)
  br i1 %125, label %126, label %158

126:                                              ; preds = %120
  %127 = load ptr, ptr %14, align 8
  %128 = getelementptr inbounds nuw %struct.SpecialJoinInfo, ptr %127, i32 0, i32 2
  %129 = load ptr, ptr %128, align 8
  %130 = load ptr, ptr %7, align 8
  %131 = call zeroext i1 @bms_is_subset(ptr noundef %129, ptr noundef %130)
  br i1 %131, label %132, label %158

132:                                              ; preds = %126
  %133 = load ptr, ptr %14, align 8
  %134 = getelementptr inbounds nuw %struct.SpecialJoinInfo, ptr %133, i32 0, i32 9
  %135 = load ptr, ptr %134, align 8
  %136 = load ptr, ptr %7, align 8
  %137 = call zeroext i1 @bms_is_subset(ptr noundef %135, ptr noundef %136)
  br i1 %137, label %138, label %158

138:                                              ; preds = %132
  %139 = load ptr, ptr %7, align 8
  %140 = load ptr, ptr %14, align 8
  %141 = getelementptr inbounds nuw %struct.SpecialJoinInfo, ptr %140, i32 0, i32 6
  %142 = load i32, ptr %141, align 4
  %143 = call ptr @bms_add_member(ptr noundef %139, i32 noundef %142)
  store ptr %143, ptr %7, align 8
  %144 = load ptr, ptr %9, align 8
  %145 = icmp ne ptr %144, null
  br i1 %145, label %146, label %152

146:                                              ; preds = %138
  %147 = load ptr, ptr %9, align 8
  %148 = load ptr, ptr %147, align 8
  %149 = load ptr, ptr %14, align 8
  %150 = call ptr @lappend(ptr noundef %148, ptr noundef %149)
  %151 = load ptr, ptr %9, align 8
  store ptr %150, ptr %151, align 8
  br label %152

152:                                              ; preds = %146, %138
  %153 = load ptr, ptr %10, align 8
  %154 = load ptr, ptr %14, align 8
  %155 = getelementptr inbounds nuw %struct.SpecialJoinInfo, ptr %154, i32 0, i32 7
  %156 = load ptr, ptr %155, align 8
  %157 = call ptr @bms_add_members(ptr noundef %153, ptr noundef %156)
  store ptr %157, ptr %10, align 8
  br label %158

158:                                              ; preds = %152, %132, %126, %120, %114
  store i32 0, ptr %13, align 4
  br label %159

159:                                              ; preds = %158, %113, %106
  call void @llvm.lifetime.end.p0(i64 8, ptr %14) #7
  %160 = load i32, ptr %13, align 4
  switch i32 %160, label %171 [
    i32 0, label %161
    i32 4, label %162
  ]

161:                                              ; preds = %159
  br label %162

162:                                              ; preds = %161, %159
  %163 = getelementptr inbounds nuw %struct.ForEachState, ptr %12, i32 0, i32 1
  %164 = load i32, ptr %163, align 8
  %165 = add i32 %164, 1
  store i32 %165, ptr %163, align 8
  br label %64, !llvm.loop !20

166:                                              ; preds = %89
  call void @llvm.lifetime.end.p0(i64 8, ptr %11) #7
  call void @llvm.lifetime.end.p0(i64 8, ptr %10) #7
  br label %167

167:                                              ; preds = %166, %43
  %168 = load ptr, ptr %7, align 8
  store ptr %168, ptr %5, align 8
  br label %169

169:                                              ; preds = %167, %41, %29, %22
  %170 = load ptr, ptr %5, align 8
  ret ptr %170

171:                                              ; preds = %159
  unreachable
}