; Function Attrs: nounwind uwtable
define dso_local ptr @add_outer_joins_to_relids(ptr noundef readonly captures(none) %0, ptr noundef %1, ptr noundef readonly captures(address) %2, ptr noundef captures(address_is_null) %3) local_unnamed_addr #0 {
  %5 = icmp eq ptr %2, null
  br i1 %5, label %.thread, label %6

6:                                                ; preds = %4
  %7 = getelementptr inbounds nuw i8, ptr %2, i64 44
  %8 = load i32, ptr %7, align 4
  %9 = icmp eq i32 %8, 0
  br i1 %9, label %.thread, label %10

10:                                               ; preds = %6
  %11 = getelementptr inbounds nuw i8, ptr %2, i64 40
  %12 = load i32, ptr %11, align 8
  %.not = icmp eq i32 %12, 1
  br i1 %.not, label %15, label %13

13:                                               ; preds = %10
  %14 = tail call ptr @bms_add_member(ptr noundef %1, i32 noundef %8) #9
  br label %.thread

15:                                               ; preds = %10
  %16 = getelementptr inbounds nuw i8, ptr %2, i64 64
  %17 = load ptr, ptr %16, align 8
  %18 = tail call zeroext i1 @bms_is_subset(ptr noundef %17, ptr noundef %1) #9
  br i1 %18, label %19, label %.thread

19:                                               ; preds = %15
  %20 = load i32, ptr %7, align 4
  %21 = tail call ptr @bms_add_member(ptr noundef %1, i32 noundef %20) #9
  %22 = getelementptr inbounds nuw i8, ptr %2, i64 48
  %23 = load ptr, ptr %22, align 8
  %.not55 = icmp eq ptr %23, null
  br i1 %.not55, label %.thread, label %24

24:                                               ; preds = %19
  %25 = tail call ptr @bms_copy(ptr noundef nonnull %23) #9
  %26 = getelementptr inbounds nuw i8, ptr %0, i64 224
  %27 = load ptr, ptr %26, align 8
  %28 = getelementptr inbounds nuw i8, ptr %27, i64 4
  %.not56 = icmp eq ptr %27, null
  br i1 %.not56, label %.thread, label %.lr.ph

.lr.ph:                                           ; preds = %24
  %29 = getelementptr inbounds nuw i8, ptr %27, i64 16
  %.not59 = icmp eq ptr %3, null
  %30 = load i32, ptr %28, align 4
  %31 = icmp sgt i32 %30, 0
  br i1 %.not59, label %.lr.ph.split.us.split, label %.lr.ph.split.preheader

.lr.ph.split.preheader:                           ; preds = %.lr.ph
  br i1 %31, label %.lr.ph85, label %.thread

.lr.ph.split.us.split:                            ; preds = %.lr.ph
  br i1 %31, label %.lr.ph73, label %.thread

.lr.ph73:                                         ; preds = %.lr.ph.split.us.split, %66
  %indvars.iv77 = phi i64 [ %indvars.iv.next78, %66 ], [ 0, %.lr.ph.split.us.split ]
  %.04462.us72 = phi ptr [ %.145.us, %66 ], [ %25, %.lr.ph.split.us.split ]
  %.164.us70 = phi ptr [ %.2.us, %66 ], [ %21, %.lr.ph.split.us.split ]
  %32 = load ptr, ptr %29, align 8
  %33 = getelementptr inbounds nuw %union.ListCell, ptr %32, i64 %indvars.iv77
  %34 = load ptr, ptr %33, align 8
  %35 = icmp eq ptr %34, %2
  br i1 %35, label %66, label %36

36:                                               ; preds = %.lr.ph73
  %37 = getelementptr inbounds nuw i8, ptr %34, i64 44
  %38 = load i32, ptr %37, align 4
  %39 = icmp eq i32 %38, 0
  br i1 %39, label %66, label %40

40:                                               ; preds = %36
  %41 = getelementptr inbounds nuw i8, ptr %34, i64 40
  %42 = load i32, ptr %41, align 8
  %.not58.us = icmp eq i32 %42, 1
  br i1 %.not58.us, label %43, label %66

43:                                               ; preds = %40
  %44 = tail call zeroext i1 @bms_is_member(i32 noundef %38, ptr noundef %.04462.us72) #9
  br i1 %44, label %45, label %66

45:                                               ; preds = %43
  %46 = load i32, ptr %37, align 4
  %47 = tail call zeroext i1 @bms_is_member(i32 noundef %46, ptr noundef %.164.us70) #9
  br i1 %47, label %66, label %48

48:                                               ; preds = %45
  %49 = getelementptr inbounds nuw i8, ptr %34, i64 8
  %50 = load ptr, ptr %49, align 8
  %51 = tail call zeroext i1 @bms_is_subset(ptr noundef %50, ptr noundef %.164.us70) #9
  br i1 %51, label %52, label %66

52:                                               ; preds = %48
  %53 = getelementptr inbounds nuw i8, ptr %34, i64 16
  %54 = load ptr, ptr %53, align 8
  %55 = tail call zeroext i1 @bms_is_subset(ptr noundef %54, ptr noundef %.164.us70) #9
  br i1 %55, label %56, label %66

56:                                               ; preds = %52
  %57 = getelementptr inbounds nuw i8, ptr %34, i64 64
  %58 = load ptr, ptr %57, align 8
  %59 = tail call zeroext i1 @bms_is_subset(ptr noundef %58, ptr noundef %.164.us70) #9
  br i1 %59, label %60, label %66

60:                                               ; preds = %56
  %61 = load i32, ptr %37, align 4
  %62 = tail call ptr @bms_add_member(ptr noundef %.164.us70, i32 noundef %61) #9
  %63 = getelementptr inbounds nuw i8, ptr %34, i64 48
  %64 = load ptr, ptr %63, align 8
  %65 = tail call ptr @bms_add_members(ptr noundef %.04462.us72, ptr noundef %64) #9
  br label %66

66:                                               ; preds = %60, %56, %52, %48, %45, %43, %40, %36, %.lr.ph73
  %.145.us = phi ptr [ %.04462.us72, %40 ], [ %.04462.us72, %36 ], [ %.04462.us72, %.lr.ph73 ], [ %.04462.us72, %43 ], [ %.04462.us72, %45 ], [ %65, %60 ], [ %.04462.us72, %56 ], [ %.04462.us72, %52 ], [ %.04462.us72, %48 ]
  %.2.us = phi ptr [ %.164.us70, %40 ], [ %.164.us70, %36 ], [ %.164.us70, %.lr.ph73 ], [ %.164.us70, %43 ], [ %.164.us70, %45 ], [ %62, %60 ], [ %.164.us70, %56 ], [ %.164.us70, %52 ], [ %.164.us70, %48 ]
  %indvars.iv.next78 = add nuw nsw i64 %indvars.iv77, 1
  %67 = load i32, ptr %28, align 4
  %68 = sext i32 %67 to i64
  %69 = icmp slt i64 %indvars.iv.next78, %68
  br i1 %69, label %.lr.ph73, label %.thread

.lr.ph85:                                         ; preds = %.lr.ph.split.preheader, %.lr.ph.split
  %.0446284 = phi ptr [ %.145, %.lr.ph.split ], [ %25, %.lr.ph.split.preheader ]
  %.16483 = phi ptr [ %.2, %.lr.ph.split ], [ %21, %.lr.ph.split.preheader ]
  %indvars.iv82 = phi i64 [ %indvars.iv.next, %.lr.ph.split ], [ 0, %.lr.ph.split.preheader ]
  %70 = load ptr, ptr %29, align 8
  %71 = getelementptr inbounds nuw %union.ListCell, ptr %70, i64 %indvars.iv82
  %72 = load ptr, ptr %71, align 8
  %73 = icmp eq ptr %72, %2
  br i1 %73, label %.lr.ph.split, label %74

74:                                               ; preds = %.lr.ph85
  %75 = getelementptr inbounds nuw i8, ptr %72, i64 44
  %76 = load i32, ptr %75, align 4
  %77 = icmp eq i32 %76, 0
  br i1 %77, label %.lr.ph.split, label %78

78:                                               ; preds = %74
  %79 = getelementptr inbounds nuw i8, ptr %72, i64 40
  %80 = load i32, ptr %79, align 8
  %.not58 = icmp eq i32 %80, 1
  br i1 %.not58, label %81, label %.lr.ph.split

81:                                               ; preds = %78
  %82 = tail call zeroext i1 @bms_is_member(i32 noundef %76, ptr noundef %.0446284) #9
  br i1 %82, label %83, label %.lr.ph.split

83:                                               ; preds = %81
  %84 = load i32, ptr %75, align 4
  %85 = tail call zeroext i1 @bms_is_member(i32 noundef %84, ptr noundef %.16483) #9
  br i1 %85, label %.lr.ph.split, label %86

86:                                               ; preds = %83
  %87 = getelementptr inbounds nuw i8, ptr %72, i64 8
  %88 = load ptr, ptr %87, align 8
  %89 = tail call zeroext i1 @bms_is_subset(ptr noundef %88, ptr noundef %.16483) #9
  br i1 %89, label %90, label %.lr.ph.split

90:                                               ; preds = %86
  %91 = getelementptr inbounds nuw i8, ptr %72, i64 16
  %92 = load ptr, ptr %91, align 8
  %93 = tail call zeroext i1 @bms_is_subset(ptr noundef %92, ptr noundef %.16483) #9
  br i1 %93, label %94, label %.lr.ph.split

94:                                               ; preds = %90
  %95 = getelementptr inbounds nuw i8, ptr %72, i64 64
  %96 = load ptr, ptr %95, align 8
  %97 = tail call zeroext i1 @bms_is_subset(ptr noundef %96, ptr noundef %.16483) #9
  br i1 %97, label %98, label %.lr.ph.split

98:                                               ; preds = %94
  %99 = load i32, ptr %75, align 4
  %100 = tail call ptr @bms_add_member(ptr noundef %.16483, i32 noundef %99) #9
  %101 = load ptr, ptr %3, align 8
  %102 = tail call ptr @lappend(ptr noundef %101, ptr noundef nonnull %72) #9
  store ptr %102, ptr %3, align 8
  %103 = getelementptr inbounds nuw i8, ptr %72, i64 48
  %104 = load ptr, ptr %103, align 8
  %105 = tail call ptr @bms_add_members(ptr noundef %.0446284, ptr noundef %104) #9
  br label %.lr.ph.split

.lr.ph.split:                                     ; preds = %83, %86, %90, %94, %98, %81, %.lr.ph85, %74, %78
  %.145 = phi ptr [ %.0446284, %78 ], [ %.0446284, %74 ], [ %.0446284, %.lr.ph85 ], [ %.0446284, %81 ], [ %.0446284, %83 ], [ %105, %98 ], [ %.0446284, %94 ], [ %.0446284, %90 ], [ %.0446284, %86 ]
  %.2 = phi ptr [ %.16483, %78 ], [ %.16483, %74 ], [ %.16483, %.lr.ph85 ], [ %.16483, %81 ], [ %.16483, %83 ], [ %100, %98 ], [ %.16483, %94 ], [ %.16483, %90 ], [ %.16483, %86 ]
  %indvars.iv.next = add nuw nsw i64 %indvars.iv82, 1
  %106 = load i32, ptr %28, align 4
  %107 = sext i32 %106 to i64
  %108 = icmp slt i64 %indvars.iv.next, %107
  br i1 %108, label %.lr.ph85, label %.thread

.thread:                                          ; preds = %.lr.ph.split, %66, %.lr.ph.split.preheader, %24, %.lr.ph.split.us.split, %19, %15, %4, %6, %13
  %.0 = phi ptr [ %14, %13 ], [ %1, %6 ], [ %1, %4 ], [ %1, %15 ], [ %21, %19 ], [ %21, %24 ], [ %21, %.lr.ph.split.us.split ], [ %21, %.lr.ph.split.preheader ], [ %.2.us, %66 ], [ %.2, %.lr.ph.split ]
  ret ptr %.0
}